target datalayout = "e-m:e-p270:32:32-p271:32:32-p272:64:64-i64:64-i128:128-f80:128-n8:16:32:64-S128"
target triple = "x86_64-pc-linux-gnu"

%"class.zmq::thread_ctx_t" = type { %"class.zmq::mutex_t", i32, i32, %"class.std::set", %"class.std::__cxx11::basic_string" }
%"class.std::set" = type { %"class.std::_Rb_tree" }
%"class.std::_Rb_tree" = type { %"struct.std::_Rb_tree<int, int, std::_Identity<int>, std::less<int>>::_Rb_tree_impl" }
%"struct.std::_Rb_tree<int, int, std::_Identity<int>, std::less<int>>::_Rb_tree_impl" = type { [8 x i8], %"struct.std::_Rb_tree_header" }
%"struct.std::_Rb_tree_header" = type { %"struct.std::_Rb_tree_node_base", i64 }
%"struct.std::_Rb_tree_node_base" = type { i32, ptr, ptr, ptr }
%"class.std::__cxx11::basic_string" = type { %"struct.std::__cxx11::basic_string<char>::_Alloc_hider", i64, %union.anon }
%"struct.std::__cxx11::basic_string<char>::_Alloc_hider" = type { ptr }
%union.anon = type { i64, [8 x i8] }
%"class.zmq::mutex_t" = type <{ %union.pthread_mutex_t, %union.pthread_mutexattr_t, [4 x i8] }>
%union.pthread_mutex_t = type { %struct.__pthread_mutex_s }
%struct.__pthread_mutex_s = type { i32, i32, i32, i32, i32, i16, i16, %struct.__pthread_internal_list }
%struct.__pthread_internal_list = type { ptr, ptr }
%union.pthread_mutexattr_t = type { i32 }

@.str.6 = private unnamed_addr constant [14 x i8] c"%s%sZMQbg%s%s\00", align 1
@.str.7 = private unnamed_addr constant [1 x i8] zeroinitializer, align 1
@.str.8 = private unnamed_addr constant [2 x i8] c"/\00", align 1

; Function Attrs: mustprogress nounwind uwtable
define available_externally noundef ptr @_ZNKSt7__cxx1112basic_stringIcSt11char_traitsIcESaIcEE7_M_dataEv(ptr noundef nonnull align 8 dereferenceable(32) %0) #1 align 2 {
  %2 = alloca ptr, align 8
  store ptr %0, ptr %2, align 8, !tbaa !136
  %3 = load ptr, ptr %2, align 8
  %4 = getelementptr inbounds nuw %"class.std::__cxx11::basic_string", ptr %3, i32 0, i32 0
  %5 = getelementptr inbounds nuw %"struct.std::__cxx11::basic_string<char>::_Alloc_hider", ptr %4, i32 0, i32 0
  %6 = load ptr, ptr %5, align 8, !tbaa !354
  ret ptr %6
}

; Function Attrs: mustprogress nounwind uwtable
define available_externally noundef i64 @_ZNKSt7__cxx1112basic_stringIcSt11char_traitsIcESaIcEE4sizeEv(ptr noundef nonnull align 8 dereferenceable(32) %0) #1 align 2 {
  %2 = alloca ptr, align 8
  store ptr %0, ptr %2, align 8, !tbaa !136
  %3 = load ptr, ptr %2, align 8
  %4 = getelementptr inbounds nuw %"class.std::__cxx11::basic_string", ptr %3, i32 0, i32 1
  %5 = load i64, ptr %4, align 8, !tbaa !165
  ret i64 %5
}

; Function Attrs: mustprogress nounwind uwtable
define available_externally noundef ptr @_ZNKSt7__cxx1112basic_stringIcSt11char_traitsIcESaIcEE5c_strEv(ptr noundef nonnull align 8 dereferenceable(32) %0) #1 align 2 {
  %2 = alloca ptr, align 8
  store ptr %0, ptr %2, align 8, !tbaa !136
  %3 = load ptr, ptr %2, align 8
  %4 = call noundef ptr @_ZNKSt7__cxx1112basic_stringIcSt11char_traitsIcESaIcEE7_M_dataEv(ptr noundef nonnull align 8 dereferenceable(32) %3)
  ret ptr %4
}

; Function Attrs: mustprogress nounwind uwtable
define available_externally noundef zeroext i1 @_ZNKSt7__cxx1112basic_stringIcSt11char_traitsIcESaIcEE5emptyEv(ptr noundef nonnull align 8 dereferenceable(32) %0) #1 align 2 {
  %2 = alloca ptr, align 8
  store ptr %0, ptr %2, align 8, !tbaa !136
  %3 = load ptr, ptr %2, align 8
  %4 = call noundef i64 @_ZNKSt7__cxx1112basic_stringIcSt11char_traitsIcESaIcEE4sizeEv(ptr noundef nonnull align 8 dereferenceable(32) %3) #21
  %5 = icmp eq i64 %4, 0
  ret i1 %5
}

; Function Attrs: mustprogress uwtable
define void @_ZNK3zmq12thread_ctx_t12start_threadERNS_8thread_tEPFvPvES3_PKc(ptr noundef nonnull align 8 dereferenceable(136) %0, ptr noundef nonnull align 8 dereferenceable(104) %1, ptr noundef %2, ptr noundef %3, ptr noundef %4) #0 align 2 {
  %6 = alloca ptr, align 8
  %7 = alloca ptr, align 8
  %8 = alloca ptr, align 8
  %9 = alloca ptr, align 8
  %10 = alloca ptr, align 8
  %11 = alloca [16 x i8], align 16
  store ptr %0, ptr %6, align 8, !tbaa !82
  store ptr %1, ptr %7, align 8, !tbaa !160
  store ptr %2, ptr %8, align 8, !tbaa !145
  store ptr %3, ptr %9, align 8, !tbaa !145
  store ptr %4, ptr %10, align 8, !tbaa !93
  %12 = load ptr, ptr %6, align 8
  %13 = load ptr, ptr %7, align 8, !tbaa !160
  %14 = getelementptr inbounds nuw %"class.zmq::thread_ctx_t", ptr %12, i32 0, i32 1
  %15 = load i32, ptr %14, align 8, !tbaa !84
  %16 = getelementptr inbounds nuw %"class.zmq::thread_ctx_t", ptr %12, i32 0, i32 2
  %17 = load i32, ptr %16, align 4, !tbaa !85
  %18 = getelementptr inbounds nuw %"class.zmq::thread_ctx_t", ptr %12, i32 0, i32 3
  call void @_ZN3zmq8thread_t23setSchedulingParametersEiiRKSt3setIiSt4lessIiESaIiEE(ptr noundef nonnull align 8 dereferenceable(104) %13, i32 noundef %15, i32 noundef %17, ptr noundef nonnull align 8 dereferenceable(48) %18)
  call void @llvm.lifetime.start.p0(i64 16, ptr %11) #21
  call void @llvm.memset.p0.i64(ptr align 16 %11, i8 0, i64 16, i1 false)
  %19 = getelementptr inbounds [16 x i8], ptr %11, i64 0, i64 0
  %20 = getelementptr inbounds nuw %"class.zmq::thread_ctx_t", ptr %12, i32 0, i32 4
  %21 = call noundef zeroext i1 @_ZNKSt7__cxx1112basic_stringIcSt11char_traitsIcESaIcEE5emptyEv(ptr noundef nonnull align 8 dereferenceable(32) %20) #21
  br i1 %21, label %22, label %23

22:                                               ; preds = %5
  br label %26

23:                                               ; preds = %5
  %24 = getelementptr inbounds nuw %"class.zmq::thread_ctx_t", ptr %12, i32 0, i32 4
  %25 = call noundef ptr @_ZNKSt7__cxx1112basic_stringIcSt11char_traitsIcESaIcEE5c_strEv(ptr noundef nonnull align 8 dereferenceable(32) %24) #21
  br label %26

26:                                               ; preds = %23, %22
  %27 = phi ptr [ @.str.7, %22 ], [ %25, %23 ]
  %28 = getelementptr inbounds nuw %"class.zmq::thread_ctx_t", ptr %12, i32 0, i32 4
  %29 = call noundef zeroext i1 @_ZNKSt7__cxx1112basic_stringIcSt11char_traitsIcESaIcEE5emptyEv(ptr noundef nonnull align 8 dereferenceable(32) %28) #21
  %30 = select i1 %29, ptr @.str.7, ptr @.str.8
  %31 = load ptr, ptr %10, align 8, !tbaa !93
  %32 = icmp ne ptr %31, null
  %33 = select i1 %32, ptr @.str.8, ptr @.str.7
  %34 = load ptr, ptr %10, align 8, !tbaa !93
  %35 = icmp ne ptr %34, null
  br i1 %35, label %36, label %38

36:                                               ; preds = %26
  %37 = load ptr, ptr %10, align 8, !tbaa !93
  br label %39

38:                                               ; preds = %26
  br label %39

39:                                               ; preds = %38, %36
  %40 = phi ptr [ %37, %36 ], [ @.str.7, %38 ]
  %41 = call i32 (ptr, i64, ptr, ...) @snprintf(ptr noundef %19, i64 noundef 16, ptr noundef @.str.6, ptr noundef %27, ptr noundef %30, ptr noundef %33, ptr noundef %40) #21
  %42 = load ptr, ptr %7, align 8, !tbaa !160
  %43 = load ptr, ptr %8, align 8, !tbaa !145
  %44 = load ptr, ptr %9, align 8, !tbaa !145
  %45 = getelementptr inbounds [16 x i8], ptr %11, i64 0, i64 0
  call void @_ZN3zmq8thread_t5startEPFvPvES1_PKc(ptr noundef nonnull align 8 dereferenceable(104) %42, ptr noundef %43, ptr noundef %44, ptr noundef %45)
  call void @llvm.lifetime.end.p0(i64 16, ptr %11) #21
  ret void
}