; Function Attrs: mustprogress uwtable
define void @_ZNK3zmq12thread_ctx_t12start_threadERNS_8thread_tEPFvPvES3_PKc(ptr noundef nonnull align 8 dereferenceable(136) %0, ptr noundef nonnull align 8 dereferenceable(104) %1, ptr noundef %2, ptr noundef %3, ptr noundef %4) local_unnamed_addr #0 align 2 {
  %6 = alloca [16 x i8], align 16
  %7 = getelementptr inbounds nuw i8, ptr %0, i64 48
  %8 = load i32, ptr %7, align 8, !tbaa !3
  %9 = getelementptr inbounds nuw i8, ptr %0, i64 52
  %10 = load i32, ptr %9, align 4, !tbaa !23
  %11 = getelementptr inbounds nuw i8, ptr %0, i64 56
  tail call void @_ZN3zmq8thread_t23setSchedulingParametersEiiRKSt3setIiSt4lessIiESaIiEE(ptr noundef nonnull align 8 dereferenceable(104) %1, i32 noundef %8, i32 noundef %10, ptr noundef nonnull align 8 dereferenceable(48) %11)
  call void @llvm.lifetime.start.p0(i64 16, ptr nonnull %6) #25
  call void @llvm.memset.p0.i64(ptr noundef nonnull align 16 dereferenceable(16) %6, i8 0, i64 16, i1 false)
  %12 = getelementptr inbounds nuw i8, ptr %0, i64 104
  %13 = getelementptr inbounds nuw i8, ptr %0, i64 112
  %14 = load i64, ptr %13, align 8, !tbaa !30
  %15 = icmp eq i64 %14, 0
  %16 = load ptr, ptr %12, align 8
  %spec.select = select i1 %15, ptr @.str.7, ptr %16
  %17 = select i1 %15, ptr @.str.7, ptr @.str.8
  %.not = icmp eq ptr %4, null
  %18 = select i1 %.not, ptr @.str.7, ptr @.str.8
  %19 = select i1 %.not, ptr @.str.7, ptr %4
  %20 = call i32 (ptr, i64, ptr, ...) @snprintf(ptr noundef nonnull dereferenceable(1) %6, i64 noundef 16, ptr noundef nonnull @.str.6, ptr noundef %spec.select, ptr noundef nonnull %17, ptr noundef nonnull %18, ptr noundef nonnull %19) #25
  call void @_ZN3zmq8thread_t5startEPFvPvES1_PKc(ptr noundef nonnull align 8 dereferenceable(104) %1, ptr noundef %2, ptr noundef %3, ptr noundef nonnull %6)
  call void @llvm.lifetime.end.p0(i64 16, ptr nonnull %6) #25
  ret void
}